; ModuleID = 'source-C-CXX/59/740.c'
source_filename = "source-C-CXX/59/740.c"
target datalayout = "e-m:e-p270:32:32-p271:32:32-p272:64:64-i64:64-f80:128-n8:16:32:64-S128"
target triple = "x86_64-pc-linux-gnu"

@.str = private unnamed_addr constant [3 x i8] c"%d\00", align 1
@.str.1 = private unnamed_addr constant [7 x i8] c"%d %d\0A\00", align 1
@str = private unnamed_addr constant [6 x i8] c"empty\00", align 1

; Function Attrs: nofree nounwind sspstrong uwtable
define dso_local i32 @main() local_unnamed_addr #0 {
  %1 = alloca i32, align 4
  %2 = bitcast i32* %1 to i8*
  call void @llvm.lifetime.start.p0i8(i64 4, i8* nonnull %2) #4
  %3 = call i32 (i8*, ...) @__isoc99_scanf(i8* getelementptr inbounds ([3 x i8], [3 x i8]* @.str, i64 0, i64 0), i32* nonnull %1)
  %4 = load i32, i32* %1, align 4, !tbaa !5
  %5 = icmp slt i32 %4, 3
  br i1 %5, label %47, label %6

6:                                                ; preds = %0, %38
  %7 = phi i32 [ %39, %38 ], [ %4, %0 ]
  %8 = phi i32 [ %44, %38 ], [ 2, %0 ]
  %9 = phi i32 [ %43, %38 ], [ 4, %0 ]
  %10 = phi i32 [ %40, %38 ], [ 0, %0 ]
  %11 = phi i32 [ %41, %38 ], [ 3, %0 ]
  br label %12

12:                                               ; preds = %6, %16
  %13 = phi i32 [ %17, %16 ], [ 2, %6 ]
  %14 = urem i32 %11, %13
  %15 = icmp eq i32 %14, 0
  br i1 %15, label %19, label %16

16:                                               ; preds = %12
  %17 = add nuw i32 %13, 1
  %18 = icmp eq i32 %17, %9
  br i1 %18, label %38, label %12, !llvm.loop !9

19:                                               ; preds = %12
  %20 = icmp eq i32 %13, %11
  br i1 %20, label %21, label %38

21:                                               ; preds = %19
  %22 = add nsw i32 %11, -2
  %23 = icmp ult i32 %11, 4
  br i1 %23, label %31, label %24

24:                                               ; preds = %21, %28
  %25 = phi i32 [ %29, %28 ], [ 2, %21 ]
  %26 = urem i32 %22, %25
  %27 = icmp eq i32 %26, 0
  br i1 %27, label %31, label %28

28:                                               ; preds = %24
  %29 = add nuw nsw i32 %25, 1
  %30 = icmp eq i32 %29, %8
  br i1 %30, label %31, label %24, !llvm.loop !11

31:                                               ; preds = %28, %24, %21
  %32 = phi i32 [ 2, %21 ], [ %25, %24 ], [ %8, %28 ]
  %33 = icmp eq i32 %32, %22
  br i1 %33, label %34, label %38

34:                                               ; preds = %31
  %35 = call i32 (i8*, ...) @printf(i8* nonnull dereferenceable(1) getelementptr inbounds ([7 x i8], [7 x i8]* @.str.1, i64 0, i64 0), i32 %22, i32 %11)
  %36 = add nsw i32 %10, 1
  %37 = load i32, i32* %1, align 4, !tbaa !5
  br label %38

38:                                               ; preds = %16, %31, %34, %19
  %39 = phi i32 [ %7, %19 ], [ %37, %34 ], [ %7, %31 ], [ %7, %16 ]
  %40 = phi i32 [ %10, %19 ], [ %36, %34 ], [ %10, %31 ], [ %10, %16 ]
  %41 = add nuw nsw i32 %11, 1
  %42 = icmp slt i32 %11, %39
  %43 = add nuw i32 %9, 1
  %44 = add nuw nsw i32 %8, 1
  br i1 %42, label %6, label %45, !llvm.loop !12

45:                                               ; preds = %38
  %46 = icmp eq i32 %40, 0
  br i1 %46, label %47, label %49

47:                                               ; preds = %0, %45
  %48 = call i32 @puts(i8* nonnull dereferenceable(1) getelementptr inbounds ([6 x i8], [6 x i8]* @str, i64 0, i64 0))
  br label %49

49:                                               ; preds = %47, %45
  call void @llvm.lifetime.end.p0i8(i64 4, i8* nonnull %2) #4
  ret i32 0
}

; Function Attrs: argmemonly mustprogress nofree nosync nounwind willreturn
declare void @llvm.lifetime.start.p0i8(i64 immarg, i8* nocapture) #1

; Function Attrs: nofree nounwind
declare noundef i32 @__isoc99_scanf(i8* nocapture noundef readonly, ...) local_unnamed_addr #2

; Function Attrs: nofree nounwind
declare noundef i32 @printf(i8* nocapture noundef readonly, ...) local_unnamed_addr #2

; Function Attrs: argmemonly mustprogress nofree nosync nounwind willreturn
declare void @llvm.lifetime.end.p0i8(i64 immarg, i8* nocapture) #1

; Function Attrs: nofree nounwind
declare noundef i32 @puts(i8* nocapture noundef readonly) local_unnamed_addr #3


!llvm.module.flags = !{!0, !1, !2, !3}
!llvm.ident = !{!4}

!0 = !{i32 1, !"wchar_size", i32 4}
!1 = !{i32 7, !"PIC Level", i32 2}
!2 = !{i32 7, !"PIE Level", i32 2}
!3 = !{i32 7, !"uwtable", i32 1}
!4 = !{!"clang version 13.0.0"}
!5 = !{!6, !6, i64 0}
!6 = !{!"int", !7, i64 0}
!7 = !{!"omnipotent char", !8, i64 0}
!8 = !{!"Simple C/C++ TBAA"}
!9 = distinct !{!9, !10}
!10 = !{!"llvm.loop.mustprogress"}
!11 = distinct !{!11, !10}
!12 = distinct !{!12, !10}
